target datalayout = "e-m:e-p270:32:32-p271:32:32-p272:64:64-i64:64-i128:128-f80:128-n8:16:32:64-S128"
target triple = "x86_64-pc-linux-gnu"

%struct.psset_s = type { [64 x %struct.hpdata_age_heap_t], [1 x i64], %struct.psset_stats_s, %struct.hpdata_empty_list_t, [128 x %struct.hpdata_purge_list_t], [2 x i64], %struct.hpdata_hugify_list_t }
%struct.hpdata_age_heap_t = type { %struct.ph_s }
%struct.ph_s = type { ptr, i64 }
%struct.psset_stats_s = type { %struct.psset_bin_stats_s, [2 x %struct.psset_bin_stats_s], [64 x [2 x %struct.psset_bin_stats_s]], [2 x %struct.psset_bin_stats_s], [2 x %struct.psset_bin_stats_s] }
%struct.psset_bin_stats_s = type { i64, i64, i64 }
%struct.hpdata_empty_list_t = type { %struct.anon }
%struct.anon = type { ptr }
%struct.hpdata_purge_list_t = type { %struct.anon.0 }
%struct.anon.0 = type { ptr }
%struct.hpdata_hugify_list_t = type { %struct.anon.1 }
%struct.anon.1 = type { ptr }
%struct.hpdata_s = type { ptr, i64, i8, i8, i8, i8, i8, %struct.nstime_t, i8, i8, i8, i8, i8, %union.anon, %struct.anon.3, %struct.anon.4, i64, i64, [8 x i64], i64, [8 x i64] }
%struct.nstime_t = type { i64 }
%union.anon = type { %struct.hpdata_age_heap_link_t }
%struct.hpdata_age_heap_link_t = type { %struct.phn_link_s }
%struct.phn_link_s = type { ptr, ptr, ptr }
%struct.anon.3 = type { ptr, ptr }
%struct.anon.4 = type { ptr, ptr }

; Function Attrs: inlinehint nounwind uwtable
define internal i32 @fls_lu(i64 noundef %0) #3 {
  %2 = alloca i64, align 8
  store i64 %0, ptr %2, align 8, !tbaa !16
  %3 = load i64, ptr %2, align 8, !tbaa !16
  %4 = icmp ne i64 %3, 0
  call void @llvm.assume(i1 %4)
  %5 = load i64, ptr %2, align 8, !tbaa !16
  %6 = call i64 @llvm.ctlz.i64(i64 %5, i1 true)
  %7 = trunc i64 %6 to i32
  %8 = sext i32 %7 to i64
  %9 = xor i64 63, %8
  %10 = trunc i64 %9 to i32
  ret i32 %10
}

; Function Attrs: inlinehint nounwind uwtable
define internal i32 @fls_u64(i64 noundef %0) #3 {
  %2 = alloca i64, align 8
  store i64 %0, ptr %2, align 8, !tbaa !16
  %3 = load i64, ptr %2, align 8, !tbaa !16
  %4 = call i32 @fls_lu(i64 noundef %3)
  ret i32 %4
}

; Function Attrs: inlinehint nounwind uwtable
define internal i32 @lg_floor(i64 noundef %0) #3 {
  %2 = alloca i64, align 8
  store i64 %0, ptr %2, align 8, !tbaa !16
  %3 = load i64, ptr %2, align 8, !tbaa !16
  %4 = icmp ne i64 %3, 0
  call void @llvm.assume(i1 %4)
  %5 = load i64, ptr %2, align 8, !tbaa !16
  %6 = call i32 @fls_u64(i64 noundef %5)
  ret i32 %6
}

; Function Attrs: inlinehint nounwind uwtable
define internal i32 @lg_ceil(i64 noundef %0) #3 {
  %2 = alloca i64, align 8
  store i64 %0, ptr %2, align 8, !tbaa !16
  %3 = load i64, ptr %2, align 8, !tbaa !16
  %4 = call i32 @lg_floor(i64 noundef %3)
  %5 = load i64, ptr %2, align 8, !tbaa !16
  %6 = load i64, ptr %2, align 8, !tbaa !16
  %7 = sub i64 %6, 1
  %8 = and i64 %5, %7
  %9 = icmp eq i64 %8, 0
  %10 = select i1 %9, i32 0, i32 1
  %11 = add i32 %4, %10
  ret i32 %11
}

; Function Attrs: inlinehint nounwind uwtable
define internal zeroext i1 @hpdata_huge_get(ptr noundef %0) #3 {
  %2 = alloca ptr, align 8
  store ptr %0, ptr %2, align 8, !tbaa !33
  %3 = load ptr, ptr %2, align 8, !tbaa !33
  %4 = getelementptr inbounds nuw %struct.hpdata_s, ptr %3, i32 0, i32 2
  %5 = load i8, ptr %4, align 8, !tbaa !55, !range !36, !noundef !37
  %6 = trunc i8 %5 to i1
  ret i1 %6
}

; Function Attrs: inlinehint nounwind uwtable
define internal i64 @hpdata_ndirty_get(ptr noundef %0) #3 {
  %2 = alloca ptr, align 8
  store ptr %0, ptr %2, align 8, !tbaa !33
  %3 = load ptr, ptr %2, align 8, !tbaa !33
  %4 = getelementptr inbounds nuw %struct.hpdata_s, ptr %3, i32 0, i32 19
  %5 = load i64, ptr %4, align 8, !tbaa !54
  %6 = load ptr, ptr %2, align 8, !tbaa !33
  %7 = getelementptr inbounds nuw %struct.hpdata_s, ptr %6, i32 0, i32 17
  %8 = load i64, ptr %7, align 8, !tbaa !49
  %9 = sub i64 %5, %8
  ret i64 %9
}

; Function Attrs: inlinehint nounwind uwtable
define internal i64 @hpdata_nactive_get(ptr noundef %0) #3 {
  %2 = alloca ptr, align 8
  store ptr %0, ptr %2, align 8, !tbaa !33
  %3 = load ptr, ptr %2, align 8, !tbaa !33
  %4 = getelementptr inbounds nuw %struct.hpdata_s, ptr %3, i32 0, i32 17
  %5 = load i64, ptr %4, align 8, !tbaa !49
  ret i64 %5
}

; Function Attrs: alwaysinline nounwind uwtable
define internal i32 @sz_psz2ind(i64 noundef %0) #5 {
  %2 = alloca i32, align 4
  %3 = alloca i64, align 8
  %4 = alloca i32, align 4
  %5 = alloca i32, align 4
  %6 = alloca i32, align 4
  %7 = alloca i32, align 4
  %8 = alloca i32, align 4
  %9 = alloca i32, align 4
  store i64 %0, ptr %3, align 8, !tbaa !16
  br label %10

10:                                               ; preds = %1
  br label %11

11:                                               ; preds = %10
  %12 = load i64, ptr %3, align 8, !tbaa !16
  %13 = icmp ugt i64 %12, 8070450532247928832
  %14 = xor i1 %13, true
  %15 = xor i1 %14, true
  %16 = zext i1 %15 to i32
  %17 = sext i32 %16 to i64
  %18 = call i64 @llvm.expect.i64(i64 %17, i64 0)
  %19 = icmp ne i64 %18, 0
  br i1 %19, label %20, label %21

20:                                               ; preds = %11
  store i32 199, ptr %2, align 4
  br label %54

21:                                               ; preds = %11
  call void @llvm.lifetime.start.p0(i64 4, ptr %4) #9
  %22 = load i64, ptr %3, align 8, !tbaa !16
  %23 = call i32 @lg_ceil(i64 noundef %22)
  store i32 %23, ptr %4, align 4, !tbaa !9
  call void @llvm.lifetime.start.p0(i64 4, ptr %5) #9
  %24 = load i32, ptr %4, align 4, !tbaa !9
  %25 = icmp ult i32 %24, 14
  br i1 %25, label %26, label %27

26:                                               ; preds = %21
  br label %30

27:                                               ; preds = %21
  %28 = load i32, ptr %4, align 4, !tbaa !9
  %29 = sub i32 %28, 14
  br label %30

30:                                               ; preds = %27, %26
  %31 = phi i32 [ 0, %26 ], [ %29, %27 ]
  store i32 %31, ptr %5, align 4, !tbaa !9
  call void @llvm.lifetime.start.p0(i64 4, ptr %6) #9
  %32 = load i32, ptr %5, align 4, !tbaa !9
  %33 = icmp eq i32 %32, 0
  br i1 %33, label %34, label %35

34:                                               ; preds = %30
  br label %39

35:                                               ; preds = %30
  %36 = load i32, ptr %5, align 4, !tbaa !9
  %37 = sub i32 %36, 1
  %38 = add i32 12, %37
  br label %39

39:                                               ; preds = %35, %34
  %40 = phi i32 [ 12, %34 ], [ %38, %35 ]
  store i32 %40, ptr %6, align 4, !tbaa !9
  call void @llvm.lifetime.start.p0(i64 4, ptr %7) #9
  %41 = load i64, ptr %3, align 8, !tbaa !16
  %42 = sub i64 %41, 1
  %43 = load i32, ptr %6, align 4, !tbaa !9
  %44 = zext i32 %43 to i64
  %45 = lshr i64 %42, %44
  %46 = and i64 %45, 3
  %47 = trunc i64 %46 to i32
  store i32 %47, ptr %7, align 4, !tbaa !9
  call void @llvm.lifetime.start.p0(i64 4, ptr %8) #9
  %48 = load i32, ptr %5, align 4, !tbaa !9
  %49 = shl i32 %48, 2
  store i32 %49, ptr %8, align 4, !tbaa !9
  call void @llvm.lifetime.start.p0(i64 4, ptr %9) #9
  %50 = load i32, ptr %8, align 4, !tbaa !9
  %51 = load i32, ptr %7, align 4, !tbaa !9
  %52 = add i32 %50, %51
  store i32 %52, ptr %9, align 4, !tbaa !9
  %53 = load i32, ptr %9, align 4, !tbaa !9
  store i32 %53, ptr %2, align 4
  call void @llvm.lifetime.end.p0(i64 4, ptr %9) #9
  call void @llvm.lifetime.end.p0(i64 4, ptr %8) #9
  call void @llvm.lifetime.end.p0(i64 4, ptr %7) #9
  call void @llvm.lifetime.end.p0(i64 4, ptr %6) #9
  call void @llvm.lifetime.end.p0(i64 4, ptr %5) #9
  call void @llvm.lifetime.end.p0(i64 4, ptr %4) #9
  br label %54

54:                                               ; preds = %39, %20
  %55 = load i32, ptr %2, align 4
  ret i32 %55
}

; Function Attrs: inlinehint nounwind uwtable
define internal i64 @hpdata_longest_free_range_get(ptr noundef %0) #3 {
  %2 = alloca ptr, align 8
  store ptr %0, ptr %2, align 8, !tbaa !33
  %3 = load ptr, ptr %2, align 8, !tbaa !33
  %4 = getelementptr inbounds nuw %struct.hpdata_s, ptr %3, i32 0, i32 16
  %5 = load i64, ptr %4, align 8, !tbaa !56
  ret i64 %5
}

; Function Attrs: alwaysinline nounwind uwtable
define internal void @psset_slab_stats_insert_remove(ptr noundef %0, ptr noundef %1, ptr noundef %2, i1 noundef zeroext %3) #5 {
  %5 = alloca ptr, align 8
  %6 = alloca ptr, align 8
  %7 = alloca ptr, align 8
  %8 = alloca i8, align 1
  %9 = alloca i64, align 8
  %10 = alloca i64, align 8
  %11 = alloca i64, align 8
  %12 = alloca i64, align 8
  store ptr %0, ptr %5, align 8, !tbaa !23
  store ptr %1, ptr %6, align 8, !tbaa !27
  store ptr %2, ptr %7, align 8, !tbaa !33
  %13 = zext i1 %3 to i8
  store i8 %13, ptr %8, align 1, !tbaa !34
  call void @llvm.lifetime.start.p0(i64 8, ptr %9) #9
  %14 = load i8, ptr %8, align 1, !tbaa !34, !range !36, !noundef !37
  %15 = trunc i8 %14 to i1
  %16 = select i1 %15, i64 1, i64 -1
  store i64 %16, ptr %9, align 8, !tbaa !16
  call void @llvm.lifetime.start.p0(i64 8, ptr %10) #9
  %17 = load ptr, ptr %7, align 8, !tbaa !33
  %18 = call i64 @hpdata_nactive_get(ptr noundef %17)
  store i64 %18, ptr %10, align 8, !tbaa !16
  call void @llvm.lifetime.start.p0(i64 8, ptr %11) #9
  %19 = load ptr, ptr %7, align 8, !tbaa !33
  %20 = call i64 @hpdata_ndirty_get(ptr noundef %19)
  store i64 %20, ptr %11, align 8, !tbaa !16
  %21 = load i64, ptr %9, align 8, !tbaa !16
  %22 = mul i64 %21, 1
  %23 = load ptr, ptr %5, align 8, !tbaa !23
  %24 = getelementptr inbounds nuw %struct.psset_stats_s, ptr %23, i32 0, i32 0
  %25 = getelementptr inbounds nuw %struct.psset_bin_stats_s, ptr %24, i32 0, i32 0
  %26 = load i64, ptr %25, align 8, !tbaa !50
  %27 = add i64 %26, %22
  store i64 %27, ptr %25, align 8, !tbaa !50
  %28 = load i64, ptr %9, align 8, !tbaa !16
  %29 = load i64, ptr %10, align 8, !tbaa !16
  %30 = mul i64 %28, %29
  %31 = load ptr, ptr %5, align 8, !tbaa !23
  %32 = getelementptr inbounds nuw %struct.psset_stats_s, ptr %31, i32 0, i32 0
  %33 = getelementptr inbounds nuw %struct.psset_bin_stats_s, ptr %32, i32 0, i32 1
  %34 = load i64, ptr %33, align 8, !tbaa !52
  %35 = add i64 %34, %30
  store i64 %35, ptr %33, align 8, !tbaa !52
  %36 = load i64, ptr %9, align 8, !tbaa !16
  %37 = load i64, ptr %11, align 8, !tbaa !16
  %38 = mul i64 %36, %37
  %39 = load ptr, ptr %5, align 8, !tbaa !23
  %40 = getelementptr inbounds nuw %struct.psset_stats_s, ptr %39, i32 0, i32 0
  %41 = getelementptr inbounds nuw %struct.psset_bin_stats_s, ptr %40, i32 0, i32 2
  %42 = load i64, ptr %41, align 8, !tbaa !53
  %43 = add i64 %42, %38
  store i64 %43, ptr %41, align 8, !tbaa !53
  call void @llvm.lifetime.start.p0(i64 8, ptr %12) #9
  %44 = load ptr, ptr %7, align 8, !tbaa !33
  %45 = call zeroext i1 @hpdata_huge_get(ptr noundef %44)
  %46 = zext i1 %45 to i64
  store i64 %46, ptr %12, align 8, !tbaa !16
  %47 = load i64, ptr %9, align 8, !tbaa !16
  %48 = mul i64 %47, 1
  %49 = load ptr, ptr %5, align 8, !tbaa !23
  %50 = getelementptr inbounds nuw %struct.psset_stats_s, ptr %49, i32 0, i32 1
  %51 = load i64, ptr %12, align 8, !tbaa !16
  %52 = getelementptr inbounds nuw [2 x %struct.psset_bin_stats_s], ptr %50, i64 0, i64 %51
  %53 = getelementptr inbounds nuw %struct.psset_bin_stats_s, ptr %52, i32 0, i32 0
  %54 = load i64, ptr %53, align 8, !tbaa !29
  %55 = add i64 %54, %48
  store i64 %55, ptr %53, align 8, !tbaa !29
  %56 = load i64, ptr %9, align 8, !tbaa !16
  %57 = load i64, ptr %10, align 8, !tbaa !16
  %58 = mul i64 %56, %57
  %59 = load ptr, ptr %5, align 8, !tbaa !23
  %60 = getelementptr inbounds nuw %struct.psset_stats_s, ptr %59, i32 0, i32 1
  %61 = load i64, ptr %12, align 8, !tbaa !16
  %62 = getelementptr inbounds nuw [2 x %struct.psset_bin_stats_s], ptr %60, i64 0, i64 %61
  %63 = getelementptr inbounds nuw %struct.psset_bin_stats_s, ptr %62, i32 0, i32 1
  %64 = load i64, ptr %63, align 8, !tbaa !31
  %65 = add i64 %64, %58
  store i64 %65, ptr %63, align 8, !tbaa !31
  %66 = load i64, ptr %9, align 8, !tbaa !16
  %67 = load i64, ptr %11, align 8, !tbaa !16
  %68 = mul i64 %66, %67
  %69 = load ptr, ptr %5, align 8, !tbaa !23
  %70 = getelementptr inbounds nuw %struct.psset_stats_s, ptr %69, i32 0, i32 1
  %71 = load i64, ptr %12, align 8, !tbaa !16
  %72 = getelementptr inbounds nuw [2 x %struct.psset_bin_stats_s], ptr %70, i64 0, i64 %71
  %73 = getelementptr inbounds nuw %struct.psset_bin_stats_s, ptr %72, i32 0, i32 2
  %74 = load i64, ptr %73, align 8, !tbaa !32
  %75 = add i64 %74, %68
  store i64 %75, ptr %73, align 8, !tbaa !32
  %76 = load i64, ptr %9, align 8, !tbaa !16
  %77 = mul i64 %76, 1
  %78 = load ptr, ptr %6, align 8, !tbaa !27
  %79 = load i64, ptr %12, align 8, !tbaa !16
  %80 = getelementptr inbounds nuw %struct.psset_bin_stats_s, ptr %78, i64 %79
  %81 = getelementptr inbounds nuw %struct.psset_bin_stats_s, ptr %80, i32 0, i32 0
  %82 = load i64, ptr %81, align 8, !tbaa !29
  %83 = add i64 %82, %77
  store i64 %83, ptr %81, align 8, !tbaa !29
  %84 = load i64, ptr %9, align 8, !tbaa !16
  %85 = load i64, ptr %10, align 8, !tbaa !16
  %86 = mul i64 %84, %85
  %87 = load ptr, ptr %6, align 8, !tbaa !27
  %88 = load i64, ptr %12, align 8, !tbaa !16
  %89 = getelementptr inbounds nuw %struct.psset_bin_stats_s, ptr %87, i64 %88
  %90 = getelementptr inbounds nuw %struct.psset_bin_stats_s, ptr %89, i32 0, i32 1
  %91 = load i64, ptr %90, align 8, !tbaa !31
  %92 = add i64 %91, %86
  store i64 %92, ptr %90, align 8, !tbaa !31
  %93 = load i64, ptr %9, align 8, !tbaa !16
  %94 = load i64, ptr %11, align 8, !tbaa !16
  %95 = mul i64 %93, %94
  %96 = load ptr, ptr %6, align 8, !tbaa !27
  %97 = load i64, ptr %12, align 8, !tbaa !16
  %98 = getelementptr inbounds nuw %struct.psset_bin_stats_s, ptr %96, i64 %97
  %99 = getelementptr inbounds nuw %struct.psset_bin_stats_s, ptr %98, i32 0, i32 2
  %100 = load i64, ptr %99, align 8, !tbaa !32
  %101 = add i64 %100, %95
  store i64 %101, ptr %99, align 8, !tbaa !32
  call void @llvm.lifetime.end.p0(i64 8, ptr %12) #9
  call void @llvm.lifetime.end.p0(i64 8, ptr %11) #9
  call void @llvm.lifetime.end.p0(i64 8, ptr %10) #9
  call void @llvm.lifetime.end.p0(i64 8, ptr %9) #9
  ret void
}

; Function Attrs: nounwind uwtable
define internal i32 @psset_hpdata_heap_index(ptr noundef %0) #0 {
  %2 = alloca ptr, align 8
  %3 = alloca i64, align 8
  %4 = alloca i32, align 4
  store ptr %0, ptr %2, align 8, !tbaa !33
  br label %5

5:                                                ; preds = %1
  br label %6

6:                                                ; preds = %5
  br label %7

7:                                                ; preds = %6
  br label %8

8:                                                ; preds = %7
  call void @llvm.lifetime.start.p0(i64 8, ptr %3) #9
  %9 = load ptr, ptr %2, align 8, !tbaa !33
  %10 = call i64 @hpdata_longest_free_range_get(ptr noundef %9)
  store i64 %10, ptr %3, align 8, !tbaa !16
  call void @llvm.lifetime.start.p0(i64 4, ptr %4) #9
  %11 = load i64, ptr %3, align 8, !tbaa !16
  %12 = shl i64 %11, 12
  %13 = call i64 @je_sz_psz_quantize_floor(i64 noundef %12)
  %14 = call i32 @sz_psz2ind(i64 noundef %13)
  store i32 %14, ptr %4, align 4, !tbaa !9
  br label %15

15:                                               ; preds = %8
  br label %16

16:                                               ; preds = %15
  br label %17

17:                                               ; preds = %16
  %18 = load i32, ptr %4, align 4, !tbaa !9
  call void @llvm.lifetime.end.p0(i64 4, ptr %4) #9
  call void @llvm.lifetime.end.p0(i64 8, ptr %3) #9
  ret i32 %18
}

; Function Attrs: inlinehint nounwind uwtable
define internal zeroext i1 @hpdata_full(ptr noundef %0) #3 {
  %2 = alloca ptr, align 8
  store ptr %0, ptr %2, align 8, !tbaa !33
  %3 = load ptr, ptr %2, align 8, !tbaa !33
  %4 = getelementptr inbounds nuw %struct.hpdata_s, ptr %3, i32 0, i32 17
  %5 = load i64, ptr %4, align 8, !tbaa !49
  %6 = icmp eq i64 %5, 512
  ret i1 %6
}

; Function Attrs: nounwind uwtable
define internal void @psset_slab_stats_remove(ptr noundef %0, ptr noundef %1, ptr noundef %2) #0 {
  %4 = alloca ptr, align 8
  %5 = alloca ptr, align 8
  %6 = alloca ptr, align 8
  store ptr %0, ptr %4, align 8, !tbaa !23
  store ptr %1, ptr %5, align 8, !tbaa !27
  store ptr %2, ptr %6, align 8, !tbaa !33
  %7 = load ptr, ptr %4, align 8, !tbaa !23
  %8 = load ptr, ptr %5, align 8, !tbaa !27
  %9 = load ptr, ptr %6, align 8, !tbaa !33
  call void @psset_slab_stats_insert_remove(ptr noundef %7, ptr noundef %8, ptr noundef %9, i1 noundef zeroext false)
  ret void
}

; Function Attrs: inlinehint nounwind uwtable
define internal zeroext i1 @hpdata_empty(ptr noundef %0) #3 {
  %2 = alloca ptr, align 8
  store ptr %0, ptr %2, align 8, !tbaa !33
  %3 = load ptr, ptr %2, align 8, !tbaa !33
  %4 = getelementptr inbounds nuw %struct.hpdata_s, ptr %3, i32 0, i32 17
  %5 = load i64, ptr %4, align 8, !tbaa !49
  %6 = icmp eq i64 %5, 0
  ret i1 %6
}

; Function Attrs: nounwind uwtable
define internal void @psset_stats_remove(ptr noundef %0, ptr noundef %1) #0 {
  %3 = alloca ptr, align 8
  %4 = alloca ptr, align 8
  %5 = alloca ptr, align 8
  %6 = alloca i32, align 4
  store ptr %0, ptr %3, align 8, !tbaa !4
  store ptr %1, ptr %4, align 8, !tbaa !33
  call void @llvm.lifetime.start.p0(i64 8, ptr %5) #9
  %7 = load ptr, ptr %3, align 8, !tbaa !4
  %8 = getelementptr inbounds nuw %struct.psset_s, ptr %7, i32 0, i32 2
  store ptr %8, ptr %5, align 8, !tbaa !23
  %9 = load ptr, ptr %4, align 8, !tbaa !33
  %10 = call zeroext i1 @hpdata_empty(ptr noundef %9)
  br i1 %10, label %11, label %18

11:                                               ; preds = %2
  %12 = load ptr, ptr %5, align 8, !tbaa !23
  %13 = load ptr, ptr %3, align 8, !tbaa !4
  %14 = getelementptr inbounds nuw %struct.psset_s, ptr %13, i32 0, i32 2
  %15 = getelementptr inbounds nuw %struct.psset_stats_s, ptr %14, i32 0, i32 4
  %16 = getelementptr inbounds [2 x %struct.psset_bin_stats_s], ptr %15, i64 0, i64 0
  %17 = load ptr, ptr %4, align 8, !tbaa !33
  call void @psset_slab_stats_remove(ptr noundef %12, ptr noundef %16, ptr noundef %17)
  br label %41

18:                                               ; preds = %2
  %19 = load ptr, ptr %4, align 8, !tbaa !33
  %20 = call zeroext i1 @hpdata_full(ptr noundef %19)
  br i1 %20, label %21, label %28

21:                                               ; preds = %18
  %22 = load ptr, ptr %5, align 8, !tbaa !23
  %23 = load ptr, ptr %3, align 8, !tbaa !4
  %24 = getelementptr inbounds nuw %struct.psset_s, ptr %23, i32 0, i32 2
  %25 = getelementptr inbounds nuw %struct.psset_stats_s, ptr %24, i32 0, i32 3
  %26 = getelementptr inbounds [2 x %struct.psset_bin_stats_s], ptr %25, i64 0, i64 0
  %27 = load ptr, ptr %4, align 8, !tbaa !33
  call void @psset_slab_stats_remove(ptr noundef %22, ptr noundef %26, ptr noundef %27)
  br label %40

28:                                               ; preds = %18
  call void @llvm.lifetime.start.p0(i64 4, ptr %6) #9
  %29 = load ptr, ptr %4, align 8, !tbaa !33
  %30 = call i32 @psset_hpdata_heap_index(ptr noundef %29)
  store i32 %30, ptr %6, align 4, !tbaa !9
  %31 = load ptr, ptr %5, align 8, !tbaa !23
  %32 = load ptr, ptr %3, align 8, !tbaa !4
  %33 = getelementptr inbounds nuw %struct.psset_s, ptr %32, i32 0, i32 2
  %34 = getelementptr inbounds nuw %struct.psset_stats_s, ptr %33, i32 0, i32 2
  %35 = load i32, ptr %6, align 4, !tbaa !9
  %36 = zext i32 %35 to i64
  %37 = getelementptr inbounds nuw [64 x [2 x %struct.psset_bin_stats_s]], ptr %34, i64 0, i64 %36
  %38 = getelementptr inbounds [2 x %struct.psset_bin_stats_s], ptr %37, i64 0, i64 0
  %39 = load ptr, ptr %4, align 8, !tbaa !33
  call void @psset_slab_stats_remove(ptr noundef %31, ptr noundef %38, ptr noundef %39)
  call void @llvm.lifetime.end.p0(i64 4, ptr %6) #9
  br label %40

40:                                               ; preds = %28, %21
  br label %41

41:                                               ; preds = %40, %11
  call void @llvm.lifetime.end.p0(i64 8, ptr %5) #9
  ret void
}