; Function Attrs: nounwind uwtable
define internal fastcc void @psset_stats_remove(ptr noundef captures(none) %0, ptr noundef readonly captures(none) %1) unnamed_addr #0 {
  %3 = getelementptr inbounds nuw i8, ptr %0, i64 1032
  %4 = getelementptr i8, ptr %1, i64 104
  %.val = load i64, ptr %4, align 8, !tbaa !25
  switch i64 %.val, label %60 [
    i64 0, label %5
    i64 512, label %28
  ]

5:                                                ; preds = %2
  %6 = getelementptr inbounds nuw i8, ptr %0, i64 4224
  %7 = getelementptr i8, ptr %1, i64 176
  %.val4.i = load i64, ptr %7, align 8, !tbaa !26
  %8 = load i64, ptr %3, align 8, !tbaa !27
  %9 = add i64 %8, -1
  store i64 %9, ptr %3, align 8, !tbaa !27
  %10 = getelementptr inbounds nuw i8, ptr %0, i64 1048
  %11 = load i64, ptr %10, align 8, !tbaa !29
  %12 = sub i64 %11, %.val4.i
  store i64 %12, ptr %10, align 8, !tbaa !29
  %13 = getelementptr i8, ptr %1, i64 16
  %.val5.i = load i8, ptr %13, align 8, !tbaa !30, !range !23, !noundef !24
  %14 = zext nneg i8 %.val5.i to i64
  %15 = getelementptr inbounds nuw i8, ptr %0, i64 1056
  %16 = getelementptr inbounds nuw [2 x %struct.psset_bin_stats_s], ptr %15, i64 0, i64 %14
  %17 = load i64, ptr %16, align 8, !tbaa !6
  %18 = add i64 %17, -1
  store i64 %18, ptr %16, align 8, !tbaa !6
  %19 = getelementptr inbounds nuw i8, ptr %16, i64 16
  %20 = load i64, ptr %19, align 8, !tbaa !12
  %21 = sub i64 %20, %.val4.i
  store i64 %21, ptr %19, align 8, !tbaa !12
  %22 = getelementptr inbounds nuw %struct.psset_bin_stats_s, ptr %6, i64 %14
  %23 = load i64, ptr %22, align 8, !tbaa !6
  %24 = add i64 %23, -1
  store i64 %24, ptr %22, align 8, !tbaa !6
  %25 = getelementptr inbounds nuw i8, ptr %22, i64 16
  %26 = load i64, ptr %25, align 8, !tbaa !12
  %27 = sub i64 %26, %.val4.i
  store i64 %27, ptr %25, align 8, !tbaa !12
  br label %113

28:                                               ; preds = %2
  %29 = getelementptr inbounds nuw i8, ptr %0, i64 4176
  %30 = getelementptr i8, ptr %1, i64 176
  %.val4.i16 = load i64, ptr %30, align 8, !tbaa !26
  %.neg.i17 = sub i64 512, %.val4.i16
  %31 = load i64, ptr %3, align 8, !tbaa !27
  %32 = add i64 %31, -1
  store i64 %32, ptr %3, align 8, !tbaa !27
  %33 = getelementptr inbounds nuw i8, ptr %0, i64 1040
  %34 = load i64, ptr %33, align 8, !tbaa !31
  %35 = add i64 %34, -512
  store i64 %35, ptr %33, align 8, !tbaa !31
  %36 = getelementptr inbounds nuw i8, ptr %0, i64 1048
  %37 = load i64, ptr %36, align 8, !tbaa !29
  %38 = add i64 %37, %.neg.i17
  store i64 %38, ptr %36, align 8, !tbaa !29
  %39 = getelementptr i8, ptr %1, i64 16
  %.val5.i18 = load i8, ptr %39, align 8, !tbaa !30, !range !23, !noundef !24
  %40 = zext nneg i8 %.val5.i18 to i64
  %41 = getelementptr inbounds nuw i8, ptr %0, i64 1056
  %42 = getelementptr inbounds nuw [2 x %struct.psset_bin_stats_s], ptr %41, i64 0, i64 %40
  %43 = load i64, ptr %42, align 8, !tbaa !6
  %44 = add i64 %43, -1
  store i64 %44, ptr %42, align 8, !tbaa !6
  %45 = getelementptr inbounds nuw i8, ptr %42, i64 8
  %46 = load i64, ptr %45, align 8, !tbaa !11
  %47 = add i64 %46, -512
  store i64 %47, ptr %45, align 8, !tbaa !11
  %48 = getelementptr inbounds nuw i8, ptr %42, i64 16
  %49 = load i64, ptr %48, align 8, !tbaa !12
  %50 = add i64 %49, %.neg.i17
  store i64 %50, ptr %48, align 8, !tbaa !12
  %51 = getelementptr inbounds nuw %struct.psset_bin_stats_s, ptr %29, i64 %40
  %52 = load i64, ptr %51, align 8, !tbaa !6
  %53 = add i64 %52, -1
  store i64 %53, ptr %51, align 8, !tbaa !6
  %54 = getelementptr inbounds nuw i8, ptr %51, i64 8
  %55 = load i64, ptr %54, align 8, !tbaa !11
  %56 = add i64 %55, -512
  store i64 %56, ptr %54, align 8, !tbaa !11
  %57 = getelementptr inbounds nuw i8, ptr %51, i64 16
  %58 = load i64, ptr %57, align 8, !tbaa !12
  %59 = add i64 %58, %.neg.i17
  store i64 %59, ptr %57, align 8, !tbaa !12
  br label %113

60:                                               ; preds = %2
  %61 = getelementptr i8, ptr %1, i64 96
  %.val14 = load i64, ptr %61, align 8, !tbaa !32
  %62 = shl i64 %.val14, 12
  %63 = tail call i64 @je_sz_psz_quantize_floor(i64 noundef %62) #9
  %64 = icmp ugt i64 %63, 8070450532247928832
  br i1 %64, label %psset_hpdata_heap_index.exit, label %65, !prof !33

65:                                               ; preds = %60
  %66 = icmp ne i64 %63, 0
  tail call void @llvm.assume(i1 %66)
  %67 = add nsw i64 %63, -1
  %68 = tail call range(i64 0, 65) i64 @llvm.ctlz.i64(i64 %67, i1 false)
  %69 = trunc nuw nsw i64 %68 to i32
  %70 = tail call i32 @llvm.usub.sat.i32(i32 50, i32 %69)
  %71 = icmp samesign ult i64 %63, 16385
  %72 = add nuw nsw i32 %70, 11
  %73 = zext nneg i32 %72 to i64
  %74 = select i1 %71, i64 12, i64 %73
  %75 = lshr i64 %67, %74
  %76 = trunc i64 %75 to i32
  %77 = and i32 %76, 3
  %78 = shl nuw nsw i32 %70, 2
  %79 = or disjoint i32 %77, %78
  %80 = zext nneg i32 %79 to i64
  br label %psset_hpdata_heap_index.exit

psset_hpdata_heap_index.exit:                     ; preds = %60, %65
  %.0.i.i = phi i64 [ %80, %65 ], [ 199, %60 ]
  %81 = getelementptr inbounds nuw i8, ptr %0, i64 1104
  %82 = getelementptr inbounds nuw [64 x [2 x %struct.psset_bin_stats_s]], ptr %81, i64 0, i64 %.0.i.i
  %.val.i19 = load i64, ptr %4, align 8, !tbaa !25
  %83 = getelementptr i8, ptr %1, i64 176
  %.val4.i20 = load i64, ptr %83, align 8, !tbaa !26
  %.neg.i21 = sub i64 %.val.i19, %.val4.i20
  %84 = load i64, ptr %3, align 8, !tbaa !27
  %85 = add i64 %84, -1
  store i64 %85, ptr %3, align 8, !tbaa !27
  %86 = getelementptr inbounds nuw i8, ptr %0, i64 1040
  %87 = load i64, ptr %86, align 8, !tbaa !31
  %88 = sub i64 %87, %.val.i19
  store i64 %88, ptr %86, align 8, !tbaa !31
  %89 = getelementptr inbounds nuw i8, ptr %0, i64 1048
  %90 = load i64, ptr %89, align 8, !tbaa !29
  %91 = add i64 %90, %.neg.i21
  store i64 %91, ptr %89, align 8, !tbaa !29
  %92 = getelementptr i8, ptr %1, i64 16
  %.val5.i22 = load i8, ptr %92, align 8, !tbaa !30, !range !23, !noundef !24
  %93 = zext nneg i8 %.val5.i22 to i64
  %94 = getelementptr inbounds nuw i8, ptr %0, i64 1056
  %95 = getelementptr inbounds nuw [2 x %struct.psset_bin_stats_s], ptr %94, i64 0, i64 %93
  %96 = load i64, ptr %95, align 8, !tbaa !6
  %97 = add i64 %96, -1
  store i64 %97, ptr %95, align 8, !tbaa !6
  %98 = getelementptr inbounds nuw i8, ptr %95, i64 8
  %99 = load i64, ptr %98, align 8, !tbaa !11
  %100 = sub i64 %99, %.val.i19
  store i64 %100, ptr %98, align 8, !tbaa !11
  %101 = getelementptr inbounds nuw i8, ptr %95, i64 16
  %102 = load i64, ptr %101, align 8, !tbaa !12
  %103 = add i64 %102, %.neg.i21
  store i64 %103, ptr %101, align 8, !tbaa !12
  %104 = getelementptr inbounds nuw %struct.psset_bin_stats_s, ptr %82, i64 %93
  %105 = load i64, ptr %104, align 8, !tbaa !6
  %106 = add i64 %105, -1
  store i64 %106, ptr %104, align 8, !tbaa !6
  %107 = getelementptr inbounds nuw i8, ptr %104, i64 8
  %108 = load i64, ptr %107, align 8, !tbaa !11
  %109 = sub i64 %108, %.val.i19
  store i64 %109, ptr %107, align 8, !tbaa !11
  %110 = getelementptr inbounds nuw i8, ptr %104, i64 16
  %111 = load i64, ptr %110, align 8, !tbaa !12
  %112 = add i64 %111, %.neg.i21
  store i64 %112, ptr %110, align 8, !tbaa !12
  br label %113

113:                                              ; preds = %28, %psset_hpdata_heap_index.exit, %5
  ret void
}